target datalayout = "e-m:e-p270:32:32-p271:32:32-p272:64:64-i64:64-i128:128-f80:128-n8:16:32:64-S128"
target triple = "x86_64-pc-linux-gnu"

%struct._follow_info = type { i32, ptr, ptr, [2 x i32], [2 x i32], [2 x ptr], i32, i32, %struct._address, %struct._address, ptr, i64 }
%struct._address = type { i32, i32, ptr, ptr }
%struct._GList = type { ptr, ptr, ptr }
%struct.follow_record_t = type { i8, i32, i32, %struct.nstime_t, ptr }
%struct.nstime_t = type { i64, i32 }

; Function Attrs: inlinehint nounwind null_pointer_is_valid sspstrong uwtable
define internal void @clear_address(ptr noundef %0) #11 {
  %2 = alloca ptr, align 8
  store ptr %0, ptr %2, align 8
  %3 = load ptr, ptr %2, align 8
  %4 = getelementptr inbounds nuw %struct._address, ptr %3, i32 0, i32 0
  store i32 0, ptr %4, align 8
  %5 = load ptr, ptr %2, align 8
  %6 = getelementptr inbounds nuw %struct._address, ptr %5, i32 0, i32 1
  store i32 0, ptr %6, align 4
  %7 = load ptr, ptr %2, align 8
  %8 = getelementptr inbounds nuw %struct._address, ptr %7, i32 0, i32 2
  store ptr null, ptr %8, align 8
  %9 = load ptr, ptr %2, align 8
  %10 = getelementptr inbounds nuw %struct._address, ptr %9, i32 0, i32 3
  store ptr null, ptr %10, align 8
  ret void
}

; Function Attrs: inlinehint null_pointer_is_valid sspstrong uwtable
define internal void @free_address_wmem(ptr noundef %0, ptr noundef %1) #6 {
  %3 = alloca ptr, align 8
  %4 = alloca ptr, align 8
  store ptr %0, ptr %3, align 8
  store ptr %1, ptr %4, align 8
  %5 = load ptr, ptr %4, align 8
  %6 = getelementptr inbounds nuw %struct._address, ptr %5, i32 0, i32 0
  %7 = load i32, ptr %6, align 8
  %8 = icmp ne i32 %7, 0
  br i1 %8, label %9, label %26

9:                                                ; preds = %2
  %10 = load ptr, ptr %4, align 8
  %11 = getelementptr inbounds nuw %struct._address, ptr %10, i32 0, i32 1
  %12 = load i32, ptr %11, align 4
  %13 = icmp sgt i32 %12, 0
  br i1 %13, label %14, label %26

14:                                               ; preds = %9
  %15 = load ptr, ptr %4, align 8
  %16 = getelementptr inbounds nuw %struct._address, ptr %15, i32 0, i32 3
  %17 = load ptr, ptr %16, align 8
  %18 = icmp ne ptr %17, null
  br i1 %18, label %19, label %26

19:                                               ; preds = %14
  br label %20

20:                                               ; preds = %19
  br label %21

21:                                               ; preds = %20
  %22 = load ptr, ptr %3, align 8
  %23 = load ptr, ptr %4, align 8
  %24 = getelementptr inbounds nuw %struct._address, ptr %23, i32 0, i32 3
  %25 = load ptr, ptr %24, align 8
  call void @wmem_free(ptr noundef %22, ptr noundef %25)
  br label %26

26:                                               ; preds = %21, %14, %9, %2
  %27 = load ptr, ptr %4, align 8
  call void @clear_address(ptr noundef %27)
  ret void
}

; Function Attrs: inlinehint null_pointer_is_valid sspstrong uwtable
define internal void @free_address(ptr noundef %0) #6 {
  %2 = alloca ptr, align 8
  store ptr %0, ptr %2, align 8
  %3 = load ptr, ptr %2, align 8
  call void @free_address_wmem(ptr noundef null, ptr noundef %3)
  ret void
}

; Function Attrs: null_pointer_is_valid sspstrong uwtable
define void @follow_reset_stream(ptr noundef %0) #0 {
  %2 = alloca ptr, align 8
  %3 = alloca ptr, align 8
  %4 = alloca ptr, align 8
  store ptr %0, ptr %2, align 8
  call void @llvm.lifetime.start.p0(i64 8, ptr %3) #14
  call void @llvm.lifetime.start.p0(i64 8, ptr %4) #14
  %5 = load ptr, ptr %2, align 8
  %6 = getelementptr inbounds nuw %struct._follow_info, ptr %5, i32 0, i32 3
  %7 = getelementptr [2 x i32], ptr %6, i64 0, i64 1
  store i32 0, ptr %7, align 4
  %8 = load ptr, ptr %2, align 8
  %9 = getelementptr inbounds nuw %struct._follow_info, ptr %8, i32 0, i32 3
  %10 = getelementptr [2 x i32], ptr %9, i64 0, i64 0
  store i32 0, ptr %10, align 8
  %11 = load ptr, ptr %2, align 8
  %12 = getelementptr inbounds nuw %struct._follow_info, ptr %11, i32 0, i32 6
  store i32 0, ptr %12, align 8
  %13 = load ptr, ptr %2, align 8
  %14 = getelementptr inbounds nuw %struct._follow_info, ptr %13, i32 0, i32 7
  store i32 0, ptr %14, align 4
  %15 = load ptr, ptr %2, align 8
  %16 = getelementptr inbounds nuw %struct._follow_info, ptr %15, i32 0, i32 8
  call void @free_address(ptr noundef %16)
  %17 = load ptr, ptr %2, align 8
  %18 = getelementptr inbounds nuw %struct._follow_info, ptr %17, i32 0, i32 9
  call void @free_address(ptr noundef %18)
  %19 = load ptr, ptr %2, align 8
  %20 = getelementptr inbounds nuw %struct._follow_info, ptr %19, i32 0, i32 2
  %21 = load ptr, ptr %20, align 8
  store ptr %21, ptr %3, align 8
  br label %22

22:                                               ; preds = %48, %1
  %23 = load ptr, ptr %3, align 8
  %24 = icmp ne ptr %23, null
  br i1 %24, label %25, label %50

25:                                               ; preds = %22
  %26 = load ptr, ptr %3, align 8
  %27 = getelementptr inbounds nuw %struct._GList, ptr %26, i32 0, i32 0
  %28 = load ptr, ptr %27, align 8
  store ptr %28, ptr %4, align 8
  %29 = load ptr, ptr %4, align 8
  %30 = getelementptr inbounds nuw %struct.follow_record_t, ptr %29, i32 0, i32 4
  %31 = load ptr, ptr %30, align 8
  %32 = icmp ne ptr %31, null
  br i1 %32, label %33, label %38

33:                                               ; preds = %25
  %34 = load ptr, ptr %4, align 8
  %35 = getelementptr inbounds nuw %struct.follow_record_t, ptr %34, i32 0, i32 4
  %36 = load ptr, ptr %35, align 8
  %37 = call ptr @g_byte_array_free(ptr noundef %36, i32 noundef 1)
  br label %38

38:                                               ; preds = %33, %25
  %39 = load ptr, ptr %4, align 8
  call void @g_free(ptr noundef %39)
  br label %40

40:                                               ; preds = %38
  %41 = load ptr, ptr %3, align 8
  %42 = icmp ne ptr %41, null
  br i1 %42, label %43, label %47

43:                                               ; preds = %40
  %44 = load ptr, ptr %3, align 8
  %45 = getelementptr inbounds nuw %struct._GList, ptr %44, i32 0, i32 1
  %46 = load ptr, ptr %45, align 8
  br label %48

47:                                               ; preds = %40
  br label %48

48:                                               ; preds = %47, %43
  %49 = phi ptr [ %46, %43 ], [ null, %47 ]
  store ptr %49, ptr %3, align 8
  br label %22, !llvm.loop !6

50:                                               ; preds = %22
  %51 = load ptr, ptr %2, align 8
  %52 = getelementptr inbounds nuw %struct._follow_info, ptr %51, i32 0, i32 2
  %53 = load ptr, ptr %52, align 8
  call void @g_list_free(ptr noundef %53)
  %54 = load ptr, ptr %2, align 8
  %55 = getelementptr inbounds nuw %struct._follow_info, ptr %54, i32 0, i32 2
  store ptr null, ptr %55, align 8
  %56 = load ptr, ptr %2, align 8
  %57 = getelementptr inbounds nuw %struct._follow_info, ptr %56, i32 0, i32 5
  %58 = getelementptr [2 x ptr], ptr %57, i64 0, i64 0
  %59 = load ptr, ptr %58, align 8
  store ptr %59, ptr %3, align 8
  br label %60

60:                                               ; preds = %86, %50
  %61 = load ptr, ptr %3, align 8
  %62 = icmp ne ptr %61, null
  br i1 %62, label %63, label %88

63:                                               ; preds = %60
  %64 = load ptr, ptr %3, align 8
  %65 = getelementptr inbounds nuw %struct._GList, ptr %64, i32 0, i32 0
  %66 = load ptr, ptr %65, align 8
  store ptr %66, ptr %4, align 8
  %67 = load ptr, ptr %4, align 8
  %68 = getelementptr inbounds nuw %struct.follow_record_t, ptr %67, i32 0, i32 4
  %69 = load ptr, ptr %68, align 8
  %70 = icmp ne ptr %69, null
  br i1 %70, label %71, label %76

71:                                               ; preds = %63
  %72 = load ptr, ptr %4, align 8
  %73 = getelementptr inbounds nuw %struct.follow_record_t, ptr %72, i32 0, i32 4
  %74 = load ptr, ptr %73, align 8
  %75 = call ptr @g_byte_array_free(ptr noundef %74, i32 noundef 1)
  br label %76

76:                                               ; preds = %71, %63
  %77 = load ptr, ptr %4, align 8
  call void @g_free(ptr noundef %77)
  br label %78

78:                                               ; preds = %76
  %79 = load ptr, ptr %3, align 8
  %80 = icmp ne ptr %79, null
  br i1 %80, label %81, label %85

81:                                               ; preds = %78
  %82 = load ptr, ptr %3, align 8
  %83 = getelementptr inbounds nuw %struct._GList, ptr %82, i32 0, i32 1
  %84 = load ptr, ptr %83, align 8
  br label %86

85:                                               ; preds = %78
  br label %86

86:                                               ; preds = %85, %81
  %87 = phi ptr [ %84, %81 ], [ null, %85 ]
  store ptr %87, ptr %3, align 8
  br label %60, !llvm.loop !8

88:                                               ; preds = %60
  %89 = load ptr, ptr %2, align 8
  %90 = getelementptr inbounds nuw %struct._follow_info, ptr %89, i32 0, i32 5
  %91 = getelementptr [2 x ptr], ptr %90, i64 0, i64 1
  %92 = load ptr, ptr %91, align 8
  store ptr %92, ptr %3, align 8
  br label %93

93:                                               ; preds = %119, %88
  %94 = load ptr, ptr %3, align 8
  %95 = icmp ne ptr %94, null
  br i1 %95, label %96, label %121

96:                                               ; preds = %93
  %97 = load ptr, ptr %3, align 8
  %98 = getelementptr inbounds nuw %struct._GList, ptr %97, i32 0, i32 0
  %99 = load ptr, ptr %98, align 8
  store ptr %99, ptr %4, align 8
  %100 = load ptr, ptr %4, align 8
  %101 = getelementptr inbounds nuw %struct.follow_record_t, ptr %100, i32 0, i32 4
  %102 = load ptr, ptr %101, align 8
  %103 = icmp ne ptr %102, null
  br i1 %103, label %104, label %109

104:                                              ; preds = %96
  %105 = load ptr, ptr %4, align 8
  %106 = getelementptr inbounds nuw %struct.follow_record_t, ptr %105, i32 0, i32 4
  %107 = load ptr, ptr %106, align 8
  %108 = call ptr @g_byte_array_free(ptr noundef %107, i32 noundef 1)
  br label %109

109:                                              ; preds = %104, %96
  %110 = load ptr, ptr %4, align 8
  call void @g_free(ptr noundef %110)
  br label %111

111:                                              ; preds = %109
  %112 = load ptr, ptr %3, align 8
  %113 = icmp ne ptr %112, null
  br i1 %113, label %114, label %118

114:                                              ; preds = %111
  %115 = load ptr, ptr %3, align 8
  %116 = getelementptr inbounds nuw %struct._GList, ptr %115, i32 0, i32 1
  %117 = load ptr, ptr %116, align 8
  br label %119

118:                                              ; preds = %111
  br label %119

119:                                              ; preds = %118, %114
  %120 = phi ptr [ %117, %114 ], [ null, %118 ]
  store ptr %120, ptr %3, align 8
  br label %93, !llvm.loop !9

121:                                              ; preds = %93
  %122 = load ptr, ptr %2, align 8
  %123 = getelementptr inbounds nuw %struct._follow_info, ptr %122, i32 0, i32 5
  %124 = getelementptr [2 x ptr], ptr %123, i64 0, i64 1
  store ptr null, ptr %124, align 8
  %125 = load ptr, ptr %2, align 8
  %126 = getelementptr inbounds nuw %struct._follow_info, ptr %125, i32 0, i32 5
  %127 = getelementptr [2 x ptr], ptr %126, i64 0, i64 0
  store ptr null, ptr %127, align 8
  %128 = load ptr, ptr %2, align 8
  %129 = getelementptr inbounds nuw %struct._follow_info, ptr %128, i32 0, i32 4
  %130 = getelementptr [2 x i32], ptr %129, i64 0, i64 1
  store i32 0, ptr %130, align 4
  %131 = load ptr, ptr %2, align 8
  %132 = getelementptr inbounds nuw %struct._follow_info, ptr %131, i32 0, i32 4
  %133 = getelementptr [2 x i32], ptr %132, i64 0, i64 0
  store i32 0, ptr %133, align 8
  %134 = load ptr, ptr %2, align 8
  %135 = getelementptr inbounds nuw %struct._follow_info, ptr %134, i32 0, i32 1
  %136 = load ptr, ptr %135, align 8
  call void @g_free(ptr noundef %136)
  %137 = load ptr, ptr %2, align 8
  %138 = getelementptr inbounds nuw %struct._follow_info, ptr %137, i32 0, i32 1
  store ptr null, ptr %138, align 8
  call void @llvm.lifetime.end.p0(i64 8, ptr %4) #14
  call void @llvm.lifetime.end.p0(i64 8, ptr %3) #14
  ret void
}