; Function Attrs: null_pointer_is_valid sspstrong uwtable
define void @follow_reset_stream(ptr noundef captures(none) initializes((24, 32), (56, 64), (72, 80), (96, 104)) %0) local_unnamed_addr #0 {
  %2 = getelementptr inbounds nuw i8, ptr %0, i64 24
  %3 = getelementptr i8, ptr %0, i64 28
  store i32 0, ptr %3, align 4
  store i32 0, ptr %2, align 8
  %4 = getelementptr inbounds nuw i8, ptr %0, i64 56
  store i32 0, ptr %4, align 8
  %5 = getelementptr inbounds nuw i8, ptr %0, i64 60
  store i32 0, ptr %5, align 4
  %6 = getelementptr inbounds nuw i8, ptr %0, i64 64
  %7 = load i32, ptr %6, align 8
  %.not.i.i = icmp eq i32 %7, 0
  br i1 %.not.i.i, label %free_address.exit, label %8

8:                                                ; preds = %1
  %9 = getelementptr inbounds nuw i8, ptr %0, i64 68
  %10 = load i32, ptr %9, align 4
  %11 = icmp sgt i32 %10, 0
  br i1 %11, label %12, label %free_address.exit

12:                                               ; preds = %8
  %13 = getelementptr inbounds nuw i8, ptr %0, i64 80
  %14 = load ptr, ptr %13, align 8
  %.not6.i.i = icmp eq ptr %14, null
  br i1 %.not6.i.i, label %free_address.exit, label %15

15:                                               ; preds = %12
  tail call void @wmem_free(ptr noundef null, ptr noundef nonnull %14)
  br label %free_address.exit

free_address.exit:                                ; preds = %1, %8, %12, %15
  tail call void @llvm.memset.p0.i64(ptr noundef nonnull align 8 dereferenceable(24) %6, i8 0, i64 24, i1 false)
  %16 = getelementptr inbounds nuw i8, ptr %0, i64 88
  %17 = load i32, ptr %16, align 8
  %.not.i.i46 = icmp eq i32 %17, 0
  br i1 %.not.i.i46, label %free_address.exit48, label %18

18:                                               ; preds = %free_address.exit
  %19 = getelementptr inbounds nuw i8, ptr %0, i64 92
  %20 = load i32, ptr %19, align 4
  %21 = icmp sgt i32 %20, 0
  br i1 %21, label %22, label %free_address.exit48

22:                                               ; preds = %18
  %23 = getelementptr inbounds nuw i8, ptr %0, i64 104
  %24 = load ptr, ptr %23, align 8
  %.not6.i.i47 = icmp eq ptr %24, null
  br i1 %.not6.i.i47, label %free_address.exit48, label %25

25:                                               ; preds = %22
  tail call void @wmem_free(ptr noundef null, ptr noundef nonnull %24)
  br label %free_address.exit48

free_address.exit48:                              ; preds = %free_address.exit, %18, %22, %25
  tail call void @llvm.memset.p0.i64(ptr noundef nonnull align 8 dereferenceable(24) %16, i8 0, i64 24, i1 false)
  %26 = getelementptr inbounds nuw i8, ptr %0, i64 16
  %.049 = load ptr, ptr %26, align 8
  %.not50 = icmp eq ptr %.049, null
  br i1 %.not50, label %._crit_edge, label %.lr.ph

.lr.ph:                                           ; preds = %free_address.exit48, %32
  %.051 = phi ptr [ %.0, %32 ], [ %.049, %free_address.exit48 ]
  %27 = load ptr, ptr %.051, align 8
  %28 = getelementptr inbounds nuw i8, ptr %27, i64 32
  %29 = load ptr, ptr %28, align 8
  %.not45 = icmp eq ptr %29, null
  br i1 %.not45, label %32, label %30

30:                                               ; preds = %.lr.ph
  %31 = tail call ptr @g_byte_array_free(ptr noundef nonnull %29, i32 noundef 1)
  br label %32

32:                                               ; preds = %30, %.lr.ph
  tail call void @g_free(ptr noundef %27)
  %33 = getelementptr inbounds nuw i8, ptr %.051, i64 8
  %.0 = load ptr, ptr %33, align 8
  %.not = icmp eq ptr %.0, null
  br i1 %.not, label %._crit_edge.loopexit, label %.lr.ph, !llvm.loop !6

._crit_edge.loopexit:                             ; preds = %32
  %.pre = load ptr, ptr %26, align 8
  br label %._crit_edge

._crit_edge:                                      ; preds = %._crit_edge.loopexit, %free_address.exit48
  %34 = phi ptr [ %.pre, %._crit_edge.loopexit ], [ null, %free_address.exit48 ]
  tail call void @g_list_free(ptr noundef %34)
  store ptr null, ptr %26, align 8
  %35 = getelementptr inbounds nuw i8, ptr %0, i64 40
  %.152 = load ptr, ptr %35, align 8
  %.not4153 = icmp eq ptr %.152, null
  br i1 %.not4153, label %._crit_edge57, label %.lr.ph56

.lr.ph56:                                         ; preds = %._crit_edge, %41
  %.154 = phi ptr [ %.1, %41 ], [ %.152, %._crit_edge ]
  %36 = load ptr, ptr %.154, align 8
  %37 = getelementptr inbounds nuw i8, ptr %36, i64 32
  %38 = load ptr, ptr %37, align 8
  %.not44 = icmp eq ptr %38, null
  br i1 %.not44, label %41, label %39

39:                                               ; preds = %.lr.ph56
  %40 = tail call ptr @g_byte_array_free(ptr noundef nonnull %38, i32 noundef 1)
  br label %41

41:                                               ; preds = %39, %.lr.ph56
  tail call void @g_free(ptr noundef %36)
  %42 = getelementptr inbounds nuw i8, ptr %.154, i64 8
  %.1 = load ptr, ptr %42, align 8
  %.not41 = icmp eq ptr %.1, null
  br i1 %.not41, label %._crit_edge57, label %.lr.ph56, !llvm.loop !8

._crit_edge57:                                    ; preds = %41, %._crit_edge
  %43 = getelementptr i8, ptr %0, i64 48
  %.258 = load ptr, ptr %43, align 8
  %.not4259 = icmp eq ptr %.258, null
  br i1 %.not4259, label %._crit_edge63, label %.lr.ph62

.lr.ph62:                                         ; preds = %._crit_edge57, %49
  %.260 = phi ptr [ %.2, %49 ], [ %.258, %._crit_edge57 ]
  %44 = load ptr, ptr %.260, align 8
  %45 = getelementptr inbounds nuw i8, ptr %44, i64 32
  %46 = load ptr, ptr %45, align 8
  %.not43 = icmp eq ptr %46, null
  br i1 %.not43, label %49, label %47

47:                                               ; preds = %.lr.ph62
  %48 = tail call ptr @g_byte_array_free(ptr noundef nonnull %46, i32 noundef 1)
  br label %49

49:                                               ; preds = %47, %.lr.ph62
  tail call void @g_free(ptr noundef %44)
  %50 = getelementptr inbounds nuw i8, ptr %.260, i64 8
  %.2 = load ptr, ptr %50, align 8
  %.not42 = icmp eq ptr %.2, null
  br i1 %.not42, label %._crit_edge63, label %.lr.ph62, !llvm.loop !9

._crit_edge63:                                    ; preds = %49, %._crit_edge57
  %51 = getelementptr inbounds nuw i8, ptr %0, i64 32
  %52 = getelementptr inbounds nuw i8, ptr %0, i64 8
  tail call void @llvm.memset.p0.i64(ptr noundef nonnull align 8 dereferenceable(24) %51, i8 0, i64 24, i1 false)
  %53 = load ptr, ptr %52, align 8
  tail call void @g_free(ptr noundef %53)
  store ptr null, ptr %52, align 8
  ret void
}